Certificate:
    Data:
        Version: 3 (0x2)
        Serial Number: 1 (0x1)
        Signature Algorithm: sha256WithRSAEncryption
        Issuer: C=JP, ST=Osaka, O=EXAMPLE, CN=EXAMPLE Intermediate CA
        Validity
            Not Before: Jan 21 12:32:39 2022 GMT
            Not After : Jan 21 12:32:39 2023 GMT
        Subject: C=JP, ST=Osaka, O=EXAMPLE, CN=example.com
        Subject Public Key Info:
            Public Key Algorithm: rsaEncryption
                RSA Public-Key: (2048 bit)
                Modulus:
                    00:a5:c7:b2:9b:c3:44:c2:ce:12:9d:dd:72:95:99:
                    4e:9e:89:68:29:70:ff:fd:25:ed:f5:4b:d7:6f:80:
                    27:fc:a9:9b:63:ec:81:2d:15:fd:27:61:49:ae:99:
                    70:97:0c:d1:24:5c:24:7d:ae:1c:b3:88:37:4b:ce:
                    27:2f:05:bb:e4:83:2d:c7:a8:83:10:23:4f:7c:33:
                    68:ec:2c:2c:57:d8:9f:b5:c2:b2:de:cf:e8:23:f5:
                    e8:b2:c2:4a:72:58:7d:92:b5:c1:d4:e2:a3:b8:15:
                    b1:c0:35:cb:40:0d:7c:41:07:ef:d3:62:3e:17:8d:
                    95:20:7e:ab:0e:01:dd:f2:94:cd:ca:3e:35:d8:fc:
                    09:3a:75:f9:19:40:bd:87:68:76:41:ae:eb:10:27:
                    4f:98:5a:4b:ae:9d:60:ec:6a:9c:25:5d:f1:a1:7c:
                    f7:e8:fa:dc:ed:f6:8a:b7:98:17:15:ee:e0:82:02:
                    94:8c:d3:16:bb:b9:5f:53:b7:26:94:ca:9f:ad:3d:
                    de:89:0c:d6:92:7a:b3:80:33:41:9d:25:97:74:79:
                    2e:f8:22:44:5f:30:7b:f2:28:6b:9f:16:f7:16:98:
                    d7:46:eb:80:28:af:d5:2a:8e:1d:6a:68:8f:b6:51:
                    a2:23:98:ff:0b:b1:3b:1e:18:2e:77:72:a2:8f:06:
                    dc:a7
                Exponent: 65537 (0x10001)
        X509v3 extensions:
            X509v3 Subject Key Identifier: 
                AD:7B:B2:96:92:D9:48:B1:AA:5F:BC:D7:7C:A8:9D:22:53:60:4C:1C
            X509v3 Authority Key Identifier: 
                keyid:76:49:81:63:60:F0:DE:82:D5:C6:CA:5C:60:8B:97:F6:D8:42:B4:04

            X509v3 Basic Constraints: 
                CA:FALSE
            X509v3 Key Usage: 
                Digital Signature, Non Repudiation, Key Encipherment
            X509v3 Extended Key Usage: 
                TLS Web Server Authentication
            X509v3 CRL Distribution Points: 

                Full Name:
                  URI:http://192.168.0.3/crl/example.net.crl

            X509v3 Subject Alternative Name: 
                DNS:*.example.com, IP Address:127.0.0.1, IP Address:192.168.0.3
    Signature Algorithm: sha256WithRSAEncryption
         45:e2:05:50:78:8c:bf:64:95:94:b1:0e:48:53:aa:73:15:03:
         f2:91:b9:bf:3f:cc:79:a4:27:34:49:cb:08:4a:4a:f4:de:10:
         21:ba:c1:d0:66:3b:04:df:37:f9:ad:5e:91:92:18:13:70:29:
         38:dd:35:e5:2f:7c:7d:00:69:62:64:ce:76:cb:0b:6f:c4:bb:
         4b:80:f4:d6:12:3e:48:c0:87:a4:af:ee:af:f9:e0:e0:bb:8b:
         51:76:86:eb:c5:8a:c3:20:71:c1:62:2a:04:c6:c9:44:0d:eb:
         99:34:eb:27:a9:61:e2:46:ce:74:ec:16:b7:92:7e:b4:79:17:
         3b:4d:c4:b5:ca:c0:ff:fa:9c:20:f4:fc:2d:b7:84:c9:8c:ee:
         6d:00:97:52:a1:ac:a5:36:ed:4f:f7:e4:82:0c:21:3f:2d:97:
         7a:a3:90:3a:d4:7a:6f:ab:cf:50:ae:aa:e9:e7:84:01:16:f0:
         e7:13:a3:d9:a3:65:9b:19:0f:61:d2:d2:b7:3a:1c:4d:22:28:
         07:1c:5b:fd:29:9f:1f:7d:55:1f:d1:f6:9c:d0:cd:32:64:6c:
         1e:e3:58:58:3c:be:c9:97:52:40:35:c7:87:09:a5:02:ea:6f:
         9f:77:d2:1a:61:5b:b9:79:c2:68:3e:4e:a3:74:ef:40:be:16:
         4a:3b:05:8f
-----BEGIN CERTIFICATE-----
MIID4TCCAsmgAwIBAgIBATANBgkqhkiG9w0BAQsFADBRMQswCQYDVQQGEwJKUDEO
MAwGA1UECAwFT3Nha2ExEDAOBgNVBAoMB0VYQU1QTEUxIDAeBgNVBAMMF0VYQU1Q
TEUgSW50ZXJtZWRpYXRlIENBMB4XDTIyMDEyMTEyMzIzOVoXDTIzMDEyMTEyMzIz
OVowRTELMAkGA1UEBhMCSlAxDjAMBgNVBAgMBU9zYWthMRAwDgYDVQQKDAdFWEFN
UExFMRQwEgYDVQQDDAtleGFtcGxlLmNvbTCCASIwDQYJKoZIhvcNAQEBBQADggEP
ADCCAQoCggEBAKXHspvDRMLOEp3dcpWZTp6JaClw//0l7fVL12+AJ/ypm2PsgS0V
/SdhSa6ZcJcM0SRcJH2uHLOIN0vOJy8Fu+SDLceogxAjT3wzaOwsLFfYn7XCst7P
6CP16LLCSnJYfZK1wdTio7gVscA1y0ANfEEH79NiPheNlSB+qw4B3fKUzco+Ndj8
CTp1+RlAvYdodkGu6xAnT5haS66dYOxqnCVd8aF89+j63O32ireYFxXu4IIClIzT
Fru5X1O3JpTKn6093okM1pJ6s4AzQZ0ll3R5LvgiRF8we/Ioa58W9xaY10brgCiv
1SqOHWpoj7ZRoiOY/wuxOx4YLndyoo8G3KcCAwEAAaOBzzCBzDAdBgNVHQ4EFgQU
rXuylpLZSLGqX7zXfKidIlNgTBwwHwYDVR0jBBgwFoAUdkmBY2Dw3oLVxspcYIuX
9thCtAQwCQYDVR0TBAIwADALBgNVHQ8EBAMCBeAwEwYDVR0lBAwwCgYIKwYBBQUH
AwEwNwYDVR0fBDAwLjAsoCqgKIYmaHR0cDovLzE5Mi4xNjguMC4zL2NybC9leGFt
cGxlLm5ldC5jcmwwJAYDVR0RBB0wG4INKi5leGFtcGxlLmNvbYcEfwAAAYcEwKgA
AzANBgkqhkiG9w0BAQsFAAOCAQEAReIFUHiMv2SVlLEOSFOqcxUD8pG5vz/MeaQn
NEnLCEpK9N4QIbrB0GY7BN83+a1ekZIYE3ApON015S98fQBpYmTOdssLb8S7S4D0
1hI+SMCHpK/ur/ng4LuLUXaG68WKwyBxwWIqBMbJRA3rmTTrJ6lh4kbOdOwWt5J+
tHkXO03EtcrA//qcIPT8LbeEyYzubQCXUqGspTbtT/fkggwhPy2XeqOQOtR6b6vP
UK6q6eeEARbw5xOj2aNlmxkPYdLStzocTSIoBxxb/SmfH31VH9H2nNDNMmRsHuNY
WDy+yZdSQDXHhwmlAupvn3fSGmFbuXnCaD5Oo3TvQL4WSjsFjw==
-----END CERTIFICATE-----
