Certificate:
    Data:
        Version: 3 (0x2)
        Serial Number: 1 (0x1)
        Signature Algorithm: sha256WithRSAEncryption
        Issuer: C=JP, ST=Osaka, O=EXAMPLE, CN=EXAMPLE Root CA
        Validity
            Not Before: Jan 21 12:32:31 2022 GMT
            Not After : Jan 21 12:32:31 2023 GMT
        Subject: C=JP, ST=Osaka, O=EXAMPLE, CN=EXAMPLE Root CA
        Subject Public Key Info:
            Public Key Algorithm: rsaEncryption
                RSA Public-Key: (2048 bit)
                Modulus:
                    00:cf:c9:a6:55:6b:ac:1c:ac:5f:b4:ce:13:f7:e8:
                    c2:a1:eb:7b:5f:5e:de:e9:45:03:b1:8c:bb:42:42:
                    55:e6:86:cb:06:4d:06:ca:25:fe:50:9b:89:5c:a1:
                    e8:26:27:0a:9e:fe:95:57:20:50:0d:42:93:19:9b:
                    e9:fe:98:7c:59:4f:71:65:16:92:15:a5:aa:9d:24:
                    7f:21:f2:92:1a:76:75:07:cc:61:b4:09:c5:9f:3b:
                    1e:c6:cb:a1:b6:13:7a:81:d1:7f:98:7f:3a:f4:60:
                    25:a6:63:bb:ab:48:48:25:73:b6:6b:4c:c0:5c:6e:
                    e3:9d:d2:51:d0:eb:0c:36:30:92:8e:db:cc:6e:4d:
                    8c:c2:41:7c:68:96:23:85:c2:25:2a:e0:63:84:ce:
                    93:39:55:8b:69:aa:5b:54:76:d5:b8:38:da:1b:e6:
                    0f:61:98:aa:f0:1b:f9:82:d0:41:af:0d:e2:2a:fd:
                    a0:42:4a:ce:fa:f3:1c:89:72:4f:07:29:99:1b:ad:
                    12:cf:d6:9d:47:7a:4f:8a:13:02:b3:86:7e:0b:34:
                    ef:8f:84:7e:f8:c2:51:b5:3e:c2:99:27:c3:a0:10:
                    79:6b:4f:26:ea:a7:1e:7c:6d:e0:b8:c8:c1:a6:ff:
                    51:45:e7:82:0b:68:ea:ff:5a:2e:dc:07:55:67:d8:
                    79:03
                Exponent: 65537 (0x10001)
        X509v3 extensions:
            X509v3 Subject Key Identifier: 
                B6:5A:0D:AE:61:43:00:C1:28:89:BF:D4:AD:38:62:4C:AF:6D:48:F4
            X509v3 Authority Key Identifier: 
                keyid:B6:5A:0D:AE:61:43:00:C1:28:89:BF:D4:AD:38:62:4C:AF:6D:48:F4

            X509v3 Basic Constraints: 
                CA:TRUE
            X509v3 Key Usage: 
                Certificate Sign, CRL Sign
    Signature Algorithm: sha256WithRSAEncryption
         98:e5:cb:98:b0:e1:92:f9:d6:74:95:d0:c0:2b:ca:49:5e:4d:
         63:31:c5:52:56:51:3a:d5:2f:c2:70:0e:60:9e:fd:29:91:44:
         06:cc:d0:d2:09:ce:f0:c5:36:02:8f:54:4b:2d:a6:7c:69:13:
         ae:1b:53:eb:dc:a2:4f:c9:81:37:8a:b7:14:02:7a:0c:3f:b7:
         a8:04:d0:d8:2e:83:cf:c5:e3:79:f5:8e:c0:f9:48:bc:d5:56:
         8a:66:f8:cc:dc:dd:a3:ce:fa:91:a6:4d:a3:5d:46:9a:7a:5e:
         b9:f8:6c:c8:25:cf:c7:d5:f9:24:5d:52:23:5c:f6:d0:c6:36:
         26:13:c7:44:6d:ed:16:a0:85:79:1f:ca:a6:4f:3f:6d:01:9c:
         b9:8e:30:41:9c:90:9e:49:30:e5:81:c2:7d:6c:cd:e9:1f:b8:
         7b:d7:8c:0c:26:e0:e0:f0:0d:70:91:cb:e1:de:9b:42:ea:d3:
         56:88:1b:0e:46:62:b7:15:38:8c:27:f3:ae:87:7f:ba:e6:27:
         3c:f3:64:80:65:07:c1:8e:7e:e2:5f:6c:2a:f6:86:5c:cd:ce:
         ac:b6:d6:e2:44:b2:b6:2e:bf:76:87:37:83:bd:b9:6e:05:9b:
         32:30:0c:ec:a0:cd:85:da:0b:05:3b:82:3a:e4:46:4b:f4:84:
         a9:a0:0a:dd
-----BEGIN CERTIFICATE-----
MIIDajCCAlKgAwIBAgIBATANBgkqhkiG9w0BAQsFADBJMQswCQYDVQQGEwJKUDEO
MAwGA1UECAwFT3Nha2ExEDAOBgNVBAoMB0VYQU1QTEUxGDAWBgNVBAMMD0VYQU1Q
TEUgUm9vdCBDQTAeFw0yMjAxMjExMjMyMzFaFw0yMzAxMjExMjMyMzFaMEkxCzAJ
BgNVBAYTAkpQMQ4wDAYDVQQIDAVPc2FrYTEQMA4GA1UECgwHRVhBTVBMRTEYMBYG
A1UEAwwPRVhBTVBMRSBSb290IENBMIIBIjANBgkqhkiG9w0BAQEFAAOCAQ8AMIIB
CgKCAQEAz8mmVWusHKxftM4T9+jCoet7X17e6UUDsYy7QkJV5obLBk0GyiX+UJuJ
XKHoJicKnv6VVyBQDUKTGZvp/ph8WU9xZRaSFaWqnSR/IfKSGnZ1B8xhtAnFnzse
xsuhthN6gdF/mH869GAlpmO7q0hIJXO2a0zAXG7jndJR0OsMNjCSjtvMbk2MwkF8
aJYjhcIlKuBjhM6TOVWLaapbVHbVuDjaG+YPYZiq8Bv5gtBBrw3iKv2gQkrO+vMc
iXJPBymZG60Sz9adR3pPihMCs4Z+CzTvj4R++MJRtT7CmSfDoBB5a08m6qcefG3g
uMjBpv9RReeCC2jq/1ou3AdVZ9h5AwIDAQABo10wWzAdBgNVHQ4EFgQUtloNrmFD
AMEoib/UrThiTK9tSPQwHwYDVR0jBBgwFoAUtloNrmFDAMEoib/UrThiTK9tSPQw
DAYDVR0TBAUwAwEB/zALBgNVHQ8EBAMCAQYwDQYJKoZIhvcNAQELBQADggEBAJjl
y5iw4ZL51nSV0MArykleTWMxxVJWUTrVL8JwDmCe/SmRRAbM0NIJzvDFNgKPVEst
pnxpE64bU+vcok/JgTeKtxQCegw/t6gE0Ngug8/F43n1jsD5SLzVVopm+Mzc3aPO
+pGmTaNdRpp6Xrn4bMglz8fV+SRdUiNc9tDGNiYTx0Rt7RaghXkfyqZPP20BnLmO
MEGckJ5JMOWBwn1szekfuHvXjAwm4ODwDXCRy+Hem0Lq01aIGw5GYrcVOIwn866H
f7rmJzzzZIBlB8GOfuJfbCr2hlzNzqy21uJEsrYuv3aHN4O9uW4FmzIwDOygzYXa
CwU7gjrkRkv0hKmgCt0=
-----END CERTIFICATE-----
