Certificate:
    Data:
        Version: 3 (0x2)
        Serial Number: 2 (0x2)
        Signature Algorithm: sha256WithRSAEncryption
        Issuer: C=JP, ST=Osaka, O=EXAMPLE, CN=EXAMPLE Root CA
        Validity
            Not Before: Jan 21 12:32:35 2022 GMT
            Not After : Jan 21 12:32:35 2023 GMT
        Subject: C=JP, ST=Osaka, O=EXAMPLE, CN=EXAMPLE Intermediate CA
        Subject Public Key Info:
            Public Key Algorithm: rsaEncryption
                RSA Public-Key: (2048 bit)
                Modulus:
                    00:cd:64:73:32:0a:d5:21:e7:37:bd:06:3d:f6:a9:
                    c3:c8:dc:fb:da:a2:2c:7d:09:0a:22:4a:47:ed:83:
                    3f:c8:9c:e2:75:b9:26:e7:c3:a6:6c:88:c6:00:2a:
                    71:f6:ed:c5:ec:8f:db:ba:cd:6f:f7:19:e7:74:71:
                    a5:43:41:ec:e0:6d:0a:2e:d0:f8:06:07:90:e8:eb:
                    fd:b0:57:d5:9d:98:ad:14:43:d6:5c:36:2b:ea:6a:
                    54:0b:13:b7:f9:a6:4e:ba:08:99:69:83:63:f6:92:
                    28:50:80:80:a7:9e:ab:f3:be:b1:c7:59:d9:e3:ec:
                    37:10:0c:e8:71:20:ef:c9:76:1b:74:96:fc:2f:08:
                    5d:b1:1d:b1:49:ec:5a:f3:63:dd:cd:78:7c:2f:2b:
                    fc:c8:4b:c1:a2:d7:08:bf:1f:b0:7f:0c:0a:dd:5e:
                    0f:53:70:81:70:05:ba:44:61:78:f5:2a:8c:56:5a:
                    2b:67:0d:4b:eb:ac:54:e5:56:b7:64:13:d7:0a:f9:
                    ab:a4:84:b2:18:fb:7e:89:c6:68:28:f7:5d:b2:b8:
                    0d:e4:ad:9b:e0:c3:41:f3:71:63:61:cc:e9:b8:0b:
                    41:e2:9a:b8:b1:8c:ff:b0:67:d2:27:5f:e9:59:56:
                    0b:68:ea:74:1d:47:62:2a:10:d0:b7:5f:43:ff:52:
                    0c:3f
                Exponent: 65537 (0x10001)
        X509v3 extensions:
            X509v3 Subject Key Identifier: 
                76:49:81:63:60:F0:DE:82:D5:C6:CA:5C:60:8B:97:F6:D8:42:B4:04
            X509v3 Authority Key Identifier: 
                keyid:B6:5A:0D:AE:61:43:00:C1:28:89:BF:D4:AD:38:62:4C:AF:6D:48:F4

            X509v3 Basic Constraints: 
                CA:TRUE
            X509v3 Key Usage: 
                Certificate Sign, CRL Sign
    Signature Algorithm: sha256WithRSAEncryption
         1c:2d:1a:fd:7b:c1:2d:ac:46:f1:9f:6e:a7:3f:4b:09:e3:82:
         4c:9f:8c:e9:67:cb:8d:59:68:01:73:93:e0:98:f7:d0:9f:76:
         67:e6:c6:01:b9:ef:4f:c3:24:bf:32:79:8e:bb:a8:6c:67:a6:
         7a:ae:70:12:58:68:b0:fe:39:5c:50:5e:53:c6:81:71:7a:b5:
         31:d2:2f:61:a5:57:fc:0b:59:d8:b4:a3:17:f3:a8:a5:33:a3:
         5d:e1:44:23:ff:6b:2e:97:f5:cd:31:14:5f:3c:69:4e:1e:8a:
         14:a4:8e:57:bf:85:a9:49:b8:2f:03:c4:fd:0b:17:9c:cd:c6:
         e1:f7:15:0d:79:21:84:aa:65:fd:66:6b:53:63:db:6a:5f:5d:
         13:2f:89:16:a6:cb:50:c1:11:8e:7c:38:2f:88:83:bf:8d:fc:
         cc:b0:60:32:1c:b5:2e:04:68:bb:0e:18:ed:d2:1c:24:a8:cc:
         d7:ec:5a:4b:1d:85:32:35:49:14:04:e6:68:9c:44:58:f7:12:
         ed:60:86:ef:7c:ac:a5:87:41:d3:d8:da:34:ea:f8:e1:25:c6:
         8f:8d:8e:e5:ee:ed:c5:c7:77:75:d8:ea:fb:79:d2:60:dd:39:
         21:af:a4:a5:4f:9d:ad:88:8e:ed:1f:e7:e4:ab:1a:bd:e6:20:
         39:7a:cd:ef
-----BEGIN CERTIFICATE-----
MIIDcjCCAlqgAwIBAgIBAjANBgkqhkiG9w0BAQsFADBJMQswCQYDVQQGEwJKUDEO
MAwGA1UECAwFT3Nha2ExEDAOBgNVBAoMB0VYQU1QTEUxGDAWBgNVBAMMD0VYQU1Q
TEUgUm9vdCBDQTAeFw0yMjAxMjExMjMyMzVaFw0yMzAxMjExMjMyMzVaMFExCzAJ
BgNVBAYTAkpQMQ4wDAYDVQQIDAVPc2FrYTEQMA4GA1UECgwHRVhBTVBMRTEgMB4G
A1UEAwwXRVhBTVBMRSBJbnRlcm1lZGlhdGUgQ0EwggEiMA0GCSqGSIb3DQEBAQUA
A4IBDwAwggEKAoIBAQDNZHMyCtUh5ze9Bj32qcPI3Pvaoix9CQoiSkftgz/InOJ1
uSbnw6ZsiMYAKnH27cXsj9u6zW/3Ged0caVDQezgbQou0PgGB5Do6/2wV9WdmK0U
Q9ZcNivqalQLE7f5pk66CJlpg2P2kihQgICnnqvzvrHHWdnj7DcQDOhxIO/Jdht0
lvwvCF2xHbFJ7FrzY93NeHwvK/zIS8Gi1wi/H7B/DArdXg9TcIFwBbpEYXj1KoxW
WitnDUvrrFTlVrdkE9cK+aukhLIY+36Jxmgo912yuA3krZvgw0HzcWNhzOm4C0Hi
mrixjP+wZ9InX+lZVgto6nQdR2IqENC3X0P/Ugw/AgMBAAGjXTBbMB0GA1UdDgQW
BBR2SYFjYPDegtXGylxgi5f22EK0BDAfBgNVHSMEGDAWgBS2Wg2uYUMAwSiJv9St
OGJMr21I9DAMBgNVHRMEBTADAQH/MAsGA1UdDwQEAwIBBjANBgkqhkiG9w0BAQsF
AAOCAQEAHC0a/XvBLaxG8Z9upz9LCeOCTJ+M6WfLjVloAXOT4Jj30J92Z+bGAbnv
T8MkvzJ5jruobGemeq5wElhosP45XFBeU8aBcXq1MdIvYaVX/AtZ2LSjF/OopTOj
XeFEI/9rLpf1zTEUXzxpTh6KFKSOV7+FqUm4LwPE/QsXnM3G4fcVDXkhhKpl/WZr
U2Pbal9dEy+JFqbLUMERjnw4L4iDv438zLBgMhy1LgRouw4Y7dIcJKjM1+xaSx2F
MjVJFATmaJxEWPcS7WCG73yspYdB09jaNOr44SXGj42O5e7txcd3ddjq+3nSYN05
Ia+kpU+drYiO7R/n5KsaveYgOXrN7w==
-----END CERTIFICATE-----
